target datalayout = "e-m:e-p270:32:32-p271:32:32-p272:64:64-i64:64-i128:128-f80:128-n8:16:32:64-S128"
target triple = "x86_64-pc-linux-gnu"

@ZPointerStoreGoodMask = external global i64, align 8
@_ZL22ZPointerLoadShiftTable = internal constant [9 x i32] [i32 24, i32 13, i32 14, i32 0, i32 15, i32 0, i32 0, i32 0, i32 16], align 16

; Function Attrs: mustprogress nounwind uwtable
define linkonce_odr hidden noundef i32 @_ZN8ZPointer23load_shift_lookup_indexEm(i64 noundef %0) #1 comdat align 2 {
  %2 = alloca i64, align 8
  store i64 %0, ptr %2, align 8
  %3 = load i64, ptr %2, align 8
  %4 = lshr i64 %3, 12
  %5 = and i64 %4, 15
  %6 = trunc i64 %5 to i32
  ret i32 %6
}

; Function Attrs: mustprogress nounwind uwtable
define linkonce_odr hidden void @_Z15assert_is_valid8zpointer(i64 noundef %0) #1 comdat {
  %2 = alloca i64, align 8
  store i64 %0, ptr %2, align 8
  ret void
}

; Function Attrs: mustprogress nounwind uwtable
define linkonce_odr hidden noundef i32 @_ZN8ZPointer17load_shift_lookupEm(i64 noundef %0) #1 comdat align 2 {
  %2 = alloca i64, align 8
  %3 = alloca i64, align 8
  store i64 %0, ptr %2, align 8
  %4 = load i64, ptr %2, align 8
  %5 = call noundef i32 @_ZN8ZPointer23load_shift_lookup_indexEm(i64 noundef %4)
  %6 = sext i32 %5 to i64
  store i64 %6, ptr %3, align 8
  %7 = load i64, ptr %3, align 8
  %8 = getelementptr inbounds [9 x i32], ptr @_ZL22ZPointerLoadShiftTable, i64 0, i64 %7
  %9 = load i32, ptr %8, align 4
  ret i32 %9
}

; Function Attrs: mustprogress nounwind uwtable
define linkonce_odr hidden noundef i64 @_Z6untype8zaddress(i64 noundef %0) #1 comdat {
  %2 = alloca i64, align 8
  store i64 %0, ptr %2, align 8
  %3 = load i64, ptr %2, align 8
  ret i64 %3
}

; Function Attrs: mustprogress nounwind uwtable
define linkonce_odr hidden noundef i64 @_Z11to_zpointerm(i64 noundef %0) #1 comdat {
  %2 = alloca i64, align 8
  store i64 %0, ptr %2, align 8
  %3 = load i64, ptr %2, align 8
  call void @_Z15assert_is_valid8zpointer(i64 noundef %3)
  %4 = load i64, ptr %2, align 8
  ret i64 %4
}

; Function Attrs: mustprogress nounwind uwtable
define linkonce_odr hidden noundef i64 @_ZN8ZAddress5colorE8zaddressm(i64 noundef %0, i64 noundef %1) #1 comdat align 2 {
  %3 = alloca i64, align 8
  %4 = alloca i64, align 8
  store i64 %0, ptr %3, align 8
  store i64 %1, ptr %4, align 8
  %5 = load i64, ptr %3, align 8
  %6 = call noundef i64 @_Z6untype8zaddress(i64 noundef %5)
  %7 = load i64, ptr %4, align 8
  %8 = call noundef i32 @_ZN8ZPointer17load_shift_lookupEm(i64 noundef %7)
  %9 = zext i32 %8 to i64
  %10 = shl i64 %6, %9
  %11 = load i64, ptr %4, align 8
  %12 = or i64 %10, %11
  %13 = call noundef i64 @_Z11to_zpointerm(i64 noundef %12)
  ret i64 %13
}

; Function Attrs: mustprogress nounwind uwtable
define linkonce_odr hidden noundef i64 @_Z11to_zpointerP7oopDesc(ptr noundef %0) #1 comdat {
  %2 = alloca ptr, align 8
  store ptr %0, ptr %2, align 8
  %3 = load ptr, ptr %2, align 8
  %4 = ptrtoint ptr %3 to i64
  %5 = call noundef i64 @_Z11to_zpointerm(i64 noundef %4)
  ret i64 %5
}

; Function Attrs: mustprogress nounwind uwtable
define linkonce_odr hidden void @_ZN2os22verify_stack_alignmentEv() #1 comdat align 2 {
  ret void
}

; Function Attrs: mustprogress nounwind uwtable
define hidden noundef i64 @_ZN18ZBarrierSetRuntime46load_barrier_on_oop_field_preloaded_store_goodEP7oopDescPS1_(ptr noundef %0, ptr noundef %1) #1 align 2 {
  %3 = alloca ptr, align 8
  %4 = alloca ptr, align 8
  store ptr %0, ptr %3, align 8
  store ptr %1, ptr %4, align 8
  call void @_ZN2os22verify_stack_alignmentEv()
  %5 = load ptr, ptr %4, align 8
  %6 = load ptr, ptr %3, align 8
  %7 = call noundef i64 @_Z11to_zpointerP7oopDesc(ptr noundef %6)
  %8 = call noundef i64 @_ZN8ZBarrier35load_barrier_on_oop_field_preloadedEPV8zpointerS0_(ptr noundef %5, i64 noundef %7)
  %9 = load i64, ptr @ZPointerStoreGoodMask, align 8
  %10 = call noundef i64 @_ZN8ZAddress5colorE8zaddressm(i64 noundef %8, i64 noundef %9)
  ret i64 %10
}