; Function Attrs: mustprogress nounwind uwtable
define hidden noundef i64 @_ZN18ZBarrierSetRuntime46load_barrier_on_oop_field_preloaded_store_goodEP7oopDescPS1_(ptr noundef %0, ptr noundef %1) #0 align 2 {
  %3 = ptrtoint ptr %0 to i64
  %4 = tail call noundef i64 @_ZN8ZBarrier35load_barrier_on_oop_field_preloadedEPV8zpointerS0_(ptr noundef %1, i64 noundef %3)
  %5 = load i64, ptr @ZPointerStoreGoodMask, align 8
  %6 = lshr i64 %5, 12
  %7 = and i64 %6, 15
  %8 = getelementptr inbounds [9 x i32], ptr @_ZL22ZPointerLoadShiftTable, i64 0, i64 %7
  %9 = load i32, ptr %8, align 4
  %10 = zext nneg i32 %9 to i64
  %11 = shl i64 %4, %10
  %12 = or i64 %11, %5
  ret i64 %12
}